target datalayout = "e-m:e-p270:32:32-p271:32:32-p272:64:64-i64:64-i128:128-f80:128-n8:16:32:64-S128"
target triple = "x86_64-pc-linux-gnu"

; Function Attrs: mustprogress uwtable
define internal noundef i32 @_ZL15rsa_verify_wrapPv17mbedtls_md_type_tPKhmS2_m(ptr noundef %0, i32 noundef %1, ptr noundef %2, i64 noundef %3, ptr noundef %4, i64 noundef %5) #0 {
  %7 = alloca i32, align 4
  %8 = alloca ptr, align 8
  %9 = alloca i32, align 4
  %10 = alloca ptr, align 8
  %11 = alloca i64, align 8
  %12 = alloca ptr, align 8
  %13 = alloca i64, align 8
  %14 = alloca i32, align 4
  %15 = alloca ptr, align 8
  %16 = alloca i64, align 8
  %17 = alloca i32, align 4
  store ptr %0, ptr %8, align 8, !tbaa !3
  store i32 %1, ptr %9, align 4, !tbaa !11
  store ptr %2, ptr %10, align 8, !tbaa !13
  store i64 %3, ptr %11, align 8, !tbaa !15
  store ptr %4, ptr %12, align 8, !tbaa !13
  store i64 %5, ptr %13, align 8, !tbaa !15
  call void @llvm.lifetime.start.p0(i64 4, ptr %14) #6
  store i32 -110, ptr %14, align 4, !tbaa !17
  call void @llvm.lifetime.start.p0(i64 8, ptr %15) #6
  %18 = load ptr, ptr %8, align 8, !tbaa !3
  store ptr %18, ptr %15, align 8, !tbaa !7
  call void @llvm.lifetime.start.p0(i64 8, ptr %16) #6
  %19 = load ptr, ptr %15, align 8, !tbaa !7
  %20 = call i64 @mbedtls_rsa_get_len(ptr noundef %19)
  store i64 %20, ptr %16, align 8, !tbaa !15
  %21 = load i32, ptr %9, align 4, !tbaa !11
  %22 = icmp eq i32 %21, 0
  br i1 %22, label %23, label %27

23:                                               ; preds = %6
  %24 = load i64, ptr %11, align 8, !tbaa !15
  %25 = icmp ult i64 4294967295, %24
  br i1 %25, label %26, label %27

26:                                               ; preds = %23
  store i32 -16000, ptr %7, align 4
  store i32 1, ptr %17, align 4
  br label %49

27:                                               ; preds = %23, %6
  %28 = load i64, ptr %13, align 8, !tbaa !15
  %29 = load i64, ptr %16, align 8, !tbaa !15
  %30 = icmp ult i64 %28, %29
  br i1 %30, label %31, label %32

31:                                               ; preds = %27
  store i32 -17280, ptr %7, align 4
  store i32 1, ptr %17, align 4
  br label %49

32:                                               ; preds = %27
  %33 = load ptr, ptr %15, align 8, !tbaa !7
  %34 = load i32, ptr %9, align 4, !tbaa !11
  %35 = load i64, ptr %11, align 8, !tbaa !15
  %36 = trunc i64 %35 to i32
  %37 = load ptr, ptr %10, align 8, !tbaa !13
  %38 = load ptr, ptr %12, align 8, !tbaa !13
  %39 = call i32 @mbedtls_rsa_pkcs1_verify(ptr noundef %33, i32 noundef %34, i32 noundef %36, ptr noundef %37, ptr noundef %38)
  store i32 %39, ptr %14, align 4, !tbaa !17
  %40 = icmp ne i32 %39, 0
  br i1 %40, label %41, label %43

41:                                               ; preds = %32
  %42 = load i32, ptr %14, align 4, !tbaa !17
  store i32 %42, ptr %7, align 4
  store i32 1, ptr %17, align 4
  br label %49

43:                                               ; preds = %32
  %44 = load i64, ptr %13, align 8, !tbaa !15
  %45 = load i64, ptr %16, align 8, !tbaa !15
  %46 = icmp ugt i64 %44, %45
  br i1 %46, label %47, label %48

47:                                               ; preds = %43
  store i32 -14592, ptr %7, align 4
  store i32 1, ptr %17, align 4
  br label %49

48:                                               ; preds = %43
  store i32 0, ptr %7, align 4
  store i32 1, ptr %17, align 4
  br label %49

49:                                               ; preds = %48, %47, %41, %31, %26
  call void @llvm.lifetime.end.p0(i64 8, ptr %16) #6
  call void @llvm.lifetime.end.p0(i64 8, ptr %15) #6
  call void @llvm.lifetime.end.p0(i64 4, ptr %14) #6
  %50 = load i32, ptr %7, align 4
  ret i32 %50
}