; Function Attrs: mustprogress uwtable
define internal noundef i32 @_ZL15rsa_verify_wrapPv17mbedtls_md_type_tPKhmS2_m(ptr noundef %0, i32 noundef %1, ptr noundef %2, i64 noundef %3, ptr noundef %4, i64 noundef %5) #0 {
  %7 = tail call i64 @mbedtls_rsa_get_len(ptr noundef %0)
  %8 = icmp eq i32 %1, 0
  %9 = icmp ugt i64 %3, 4294967295
  %or.cond = and i1 %8, %9
  br i1 %or.cond, label %17, label %10

10:                                               ; preds = %6
  %11 = icmp ult i64 %5, %7
  br i1 %11, label %17, label %12

12:                                               ; preds = %10
  %13 = trunc i64 %3 to i32
  %14 = tail call i32 @mbedtls_rsa_pkcs1_verify(ptr noundef %0, i32 noundef %1, i32 noundef %13, ptr noundef %2, ptr noundef %4)
  %.not = icmp eq i32 %14, 0
  br i1 %.not, label %15, label %17

15:                                               ; preds = %12
  %16 = icmp ugt i64 %5, %7
  %. = select i1 %16, i32 -14592, i32 0
  br label %17

17:                                               ; preds = %15, %12, %10, %6
  %.0 = phi i32 [ -16000, %6 ], [ -17280, %10 ], [ %14, %12 ], [ %., %15 ]
  ret i32 %.0
}